ccopy_reg
_reconstructor
p0
(cbidict._bidict
bidict
p1
c__builtin__
object
p2
Ntp3
Rp4
(dp5
S'fwdm'
p6
(dp7
V 
p8
S'CBFEF5BE3D'
p9
sV@
p10
S'77F6633F9F'
p11
sV)
p12
S'0EDF901B79'
p13
sV(
p14
S'77654B46DD'
p15
sV/
p16
S'F715C5696D'
p17
sV:
p18
S'A22AF33E47'
p19
ssS'invm'
p20
(dp21
g15
g14
sg9
g8
sg13
g12
sg19
g18
sg17
g16
sg11
g10
ssS'isinv'
p22
I00
sS'inv'
p23
g0
(g1
g2
Ntp24
Rp25
(dp26
S'fwd_cls'
p27
c__builtin__
dict
p28
sg22
I01
sg6
g21
sg23
g4
sg20
g7
sS'inv_cls'
p29
g28
sbsS'_hash'
p30
Nsb.